; Function Attrs: nounwind uwtable
define void @ff_rm_free_rmstream(ptr noundef %0) local_unnamed_addr #0 {
  %.not = icmp eq ptr %0, null
  br i1 %.not, label %3, label %2

2:                                                ; preds = %1
  tail call void @av_packet_unref(ptr noundef nonnull %0) #12
  br label %3

3:                                                ; preds = %1, %2
  ret void
}